; Function Attrs: mustprogress uwtable
define hidden void @_ZN13pdecl_manager13del_decl_coreEP5pdecl(ptr noundef nonnull align 8 dereferenceable(192) %this, ptr noundef %p) local_unnamed_addr #3 align 2 {
entry:
  %vtable = load ptr, ptr %p, align 8
  %vfn = getelementptr inbounds i8, ptr %vtable, i64 8
  %0 = load ptr, ptr %vfn, align 8
  %call = tail call noundef i64 %0(ptr noundef nonnull align 8 dereferenceable(20) %p)
  %m_id.i = getelementptr inbounds i8, ptr %p, i64 8
  %1 = load i32, ptr %m_id.i, align 8
  %call.i = tail call noundef zeroext i1 @_ZN6memory16is_out_of_memoryEv()
  br i1 %call.i, label %_ZN6id_gen7recycleEj.exit, label %if.end.i

if.end.i:                                         ; preds = %entry
  %m_free_ids.i = getelementptr inbounds i8, ptr %this, i64 24
  %2 = load ptr, ptr %m_free_ids.i, align 8
  %cmp.i.i = icmp eq ptr %2, null
  br i1 %cmp.i.i, label %if.then.i.i, label %lor.lhs.false.i.i

lor.lhs.false.i.i:                                ; preds = %if.end.i
  %arrayidx.i.i = getelementptr inbounds i8, ptr %2, i64 -4
  %3 = load i32, ptr %arrayidx.i.i, align 4
  %arrayidx4.i.i = getelementptr inbounds i8, ptr %2, i64 -8
  %4 = load i32, ptr %arrayidx4.i.i, align 4
  %cmp5.i.i = icmp eq i32 %3, %4
  br i1 %cmp5.i.i, label %if.then.i.i, label %_ZN6vectorIjLb0EjE9push_backERKj.exit.i

if.then.i.i:                                      ; preds = %lor.lhs.false.i.i, %if.end.i
  tail call void @_ZN6vectorIjLb0EjE13expand_vectorEv(ptr noundef nonnull align 8 dereferenceable(8) %m_free_ids.i)
  %.pre.i.i = load ptr, ptr %m_free_ids.i, align 8
  %arrayidx8.phi.trans.insert.i.i = getelementptr inbounds i8, ptr %.pre.i.i, i64 -4
  %.pre1.i.i = load i32, ptr %arrayidx8.phi.trans.insert.i.i, align 4
  br label %_ZN6vectorIjLb0EjE9push_backERKj.exit.i

_ZN6vectorIjLb0EjE9push_backERKj.exit.i:          ; preds = %if.then.i.i, %lor.lhs.false.i.i
  %5 = phi i32 [ %.pre1.i.i, %if.then.i.i ], [ %3, %lor.lhs.false.i.i ]
  %6 = phi ptr [ %.pre.i.i, %if.then.i.i ], [ %2, %lor.lhs.false.i.i ]
  %idx.ext.i.i = zext i32 %5 to i64
  %add.ptr.i.i = getelementptr inbounds i32, ptr %6, i64 %idx.ext.i.i
  store i32 %1, ptr %add.ptr.i.i, align 4
  %7 = load ptr, ptr %m_free_ids.i, align 8
  %arrayidx10.i.i = getelementptr inbounds i8, ptr %7, i64 -4
  %8 = load i32, ptr %arrayidx10.i.i, align 4
  %inc.i.i = add i32 %8, 1
  store i32 %inc.i.i, ptr %arrayidx10.i.i, align 4
  br label %_ZN6id_gen7recycleEj.exit

_ZN6id_gen7recycleEj.exit:                        ; preds = %entry, %_ZN6vectorIjLb0EjE9push_backERKj.exit.i
  %vtable3 = load ptr, ptr %p, align 8
  %vfn4 = getelementptr inbounds i8, ptr %vtable3, i64 16
  %9 = load ptr, ptr %vfn4, align 8
  tail call void %9(ptr noundef nonnull align 8 dereferenceable(20) %p, ptr noundef nonnull align 8 dereferenceable(192) %this)
  %vtable5 = load ptr, ptr %p, align 8
  %vfn6 = getelementptr inbounds i8, ptr %vtable5, i64 24
  %10 = load ptr, ptr %vfn6, align 8
  tail call void %10(ptr noundef nonnull align 8 dereferenceable(20) %p) #22
  %m_allocator = getelementptr inbounds i8, ptr %this, i64 8
  %11 = load ptr, ptr %m_allocator, align 8
  tail call void @_ZN22small_object_allocator10deallocateEmPv(ptr noundef nonnull align 8 dereferenceable(520) %11, i64 noundef %call, ptr noundef nonnull %p)
  ret void
}